target datalayout = "e-m:e-p270:32:32-p271:32:32-p272:64:64-i64:64-i128:128-f80:128-n8:16:32:64-S128"
target triple = "x86_64-pc-linux-gnu"

%struct.CVodeProjMemRec = type { i32, i32, i32, i64, i64, i32, ptr, double, double, i64, i64 }

; Function Attrs: nounwind uwtable
define i32 @cvProjInit(ptr noundef %0) #0 {
  %2 = alloca i32, align 4
  %3 = alloca ptr, align 8
  store ptr %0, ptr %3, align 8
  %4 = load ptr, ptr %3, align 8
  %5 = icmp eq ptr %4, null
  br i1 %5, label %6, label %7

6:                                                ; preds = %1
  store i32 -29, ptr %2, align 4
  br label %16

7:                                                ; preds = %1
  %8 = load ptr, ptr %3, align 8
  %9 = getelementptr inbounds %struct.CVodeProjMemRec, ptr %8, i32 0, i32 2
  store i32 1, ptr %9, align 8
  %10 = load ptr, ptr %3, align 8
  %11 = getelementptr inbounds %struct.CVodeProjMemRec, ptr %10, i32 0, i32 4
  store i64 0, ptr %11, align 8
  %12 = load ptr, ptr %3, align 8
  %13 = getelementptr inbounds %struct.CVodeProjMemRec, ptr %12, i32 0, i32 9
  store i64 0, ptr %13, align 8
  %14 = load ptr, ptr %3, align 8
  %15 = getelementptr inbounds %struct.CVodeProjMemRec, ptr %14, i32 0, i32 10
  store i64 0, ptr %15, align 8
  store i32 0, ptr %2, align 4
  br label %16

16:                                               ; preds = %7, %6
  %17 = load i32, ptr %2, align 4
  ret i32 %17
}